; Function Attrs: mustprogress uwtable
define void @udatpg_setDecimal_77(ptr noundef %0, ptr noundef %1, i32 noundef %2) local_unnamed_addr #0 personality ptr @__gxx_personality_v0 {
  %4 = alloca %"class.icu_77::UnicodeString", align 8
  %5 = alloca %"class.icu_77::ConstChar16Ptr", align 8
  call void @llvm.lifetime.start.p0(i64 64, ptr nonnull %4) #5
  %.lobit = lshr i32 %2, 31
  %6 = trunc nuw nsw i32 %.lobit to i8
  store ptr %1, ptr %5, align 8, !tbaa !9
  invoke void @_ZN6icu_7713UnicodeStringC1EaNS_14ConstChar16PtrEi(ptr noundef nonnull align 8 dereferenceable(64) %4, i8 noundef signext %6, ptr noundef nonnull %5, i32 noundef %2)
          to label %7 unwind label %10

7:                                                ; preds = %3
  %8 = load ptr, ptr %5, align 8, !tbaa !9
  call void asm sideeffect "", "rm,~{memory},~{dirflag},~{fpsr},~{flags}"(ptr %8) #5, !srcloc !13
  invoke void @_ZN6icu_7724DateTimePatternGenerator10setDecimalERKNS_13UnicodeStringE(ptr noundef nonnull align 8 dereferenceable(4796) %0, ptr noundef nonnull align 8 dereferenceable(64) %4)
          to label %9 unwind label %13

9:                                                ; preds = %7
  call void @_ZN6icu_7713UnicodeStringD1Ev(ptr noundef nonnull align 8 dereferenceable(64) %4) #5
  call void @llvm.lifetime.end.p0(i64 64, ptr nonnull %4) #5
  ret void

10:                                               ; preds = %3
  %11 = landingpad { ptr, i32 }
          cleanup
  %12 = load ptr, ptr %5, align 8, !tbaa !9
  call void asm sideeffect "", "rm,~{memory},~{dirflag},~{fpsr},~{flags}"(ptr %12) #5, !srcloc !13
  br label %15

13:                                               ; preds = %7
  %14 = landingpad { ptr, i32 }
          cleanup
  call void @_ZN6icu_7713UnicodeStringD1Ev(ptr noundef nonnull align 8 dereferenceable(64) %4) #5
  br label %15

15:                                               ; preds = %13, %10
  %.pn = phi { ptr, i32 } [ %14, %13 ], [ %11, %10 ]
  call void @llvm.lifetime.end.p0(i64 64, ptr nonnull %4) #5
  resume { ptr, i32 } %.pn
}